target datalayout = "e-m:e-p270:32:32-p271:32:32-p272:64:64-i64:64-i128:128-f80:128-n8:16:32:64-S128"
target triple = "x86_64-pc-linux-gnu"

%struct.HTable = type { i32, ptr }

; Function Attrs: nounwind uwtable
define internal i32 @next_highest_power_of_2(i32 noundef %0) #0 {
  %2 = alloca i32, align 4
  store i32 %0, ptr %2, align 4
  %3 = load i32, ptr %2, align 4
  %4 = add i32 %3, -1
  store i32 %4, ptr %2, align 4
  %5 = load i32, ptr %2, align 4
  %6 = lshr i32 %5, 1
  %7 = load i32, ptr %2, align 4
  %8 = or i32 %7, %6
  store i32 %8, ptr %2, align 4
  %9 = load i32, ptr %2, align 4
  %10 = lshr i32 %9, 2
  %11 = load i32, ptr %2, align 4
  %12 = or i32 %11, %10
  store i32 %12, ptr %2, align 4
  %13 = load i32, ptr %2, align 4
  %14 = lshr i32 %13, 4
  %15 = load i32, ptr %2, align 4
  %16 = or i32 %15, %14
  store i32 %16, ptr %2, align 4
  %17 = load i32, ptr %2, align 4
  %18 = lshr i32 %17, 8
  %19 = load i32, ptr %2, align 4
  %20 = or i32 %19, %18
  store i32 %20, ptr %2, align 4
  %21 = load i32, ptr %2, align 4
  %22 = lshr i32 %21, 16
  %23 = load i32, ptr %2, align 4
  %24 = or i32 %23, %22
  store i32 %24, ptr %2, align 4
  %25 = load i32, ptr %2, align 4
  %26 = add i32 %25, 1
  store i32 %26, ptr %2, align 4
  %27 = load i32, ptr %2, align 4
  ret i32 %27
}

; Function Attrs: nounwind uwtable
define dso_local void @htable_init(ptr noundef %0, i32 noundef %1) #0 {
  %3 = alloca ptr, align 8
  %4 = alloca i32, align 4
  %5 = alloca i64, align 8
  %6 = alloca i64, align 8
  %7 = alloca ptr, align 8
  %8 = alloca i32, align 4
  store ptr %0, ptr %3, align 8
  store i32 %1, ptr %4, align 4
  %9 = load i32, ptr %4, align 4
  %10 = call i32 @next_highest_power_of_2(i32 noundef %9)
  %11 = zext i32 %10 to i64
  store i64 %11, ptr %5, align 8
  %12 = load i32, ptr %4, align 4
  %13 = zext i32 %12 to i64
  %14 = mul i64 %13, 24
  store i64 %14, ptr %6, align 8
  %15 = load i64, ptr %6, align 8
  %16 = call ptr @calloc_arena(i64 noundef %15)
  %17 = load ptr, ptr %3, align 8
  %18 = getelementptr inbounds %struct.HTable, ptr %17, i32 0, i32 1
  store ptr %16, ptr %18, align 8
  %19 = load ptr, ptr %3, align 8
  %20 = getelementptr inbounds %struct.HTable, ptr %19, i32 0, i32 1
  %21 = load ptr, ptr %20, align 8
  store ptr %21, ptr %7, align 8
  store i32 0, ptr %8, align 4
  br label %22

22:                                               ; preds = %30, %2
  %23 = load i32, ptr %8, align 4
  %24 = sext i32 %23 to i64
  %25 = load i64, ptr %6, align 8
  %26 = icmp ult i64 %24, %25
  br i1 %26, label %27, label %33

27:                                               ; preds = %22
  %28 = load ptr, ptr %7, align 8
  %29 = getelementptr inbounds i8, ptr %28, i64 0
  store i8 0, ptr %29, align 1
  br label %30

30:                                               ; preds = %27
  %31 = load i32, ptr %8, align 4
  %32 = add nsw i32 %31, 4096
  store i32 %32, ptr %8, align 4
  br label %22, !llvm.loop !18

33:                                               ; preds = %22
  %34 = load i64, ptr %5, align 8
  %35 = sub i64 %34, 1
  %36 = trunc i64 %35 to i32
  %37 = load ptr, ptr %3, align 8
  %38 = getelementptr inbounds %struct.HTable, ptr %37, i32 0, i32 0
  store i32 %36, ptr %38, align 8
  ret void
}