; Function Attrs: nounwind uwtable
define dso_local void @htable_init(ptr nocapture noundef writeonly %0, i32 noundef %1) local_unnamed_addr #2 {
  %3 = zext i32 %1 to i64
  %4 = mul nuw nsw i64 %3, 24
  %5 = tail call ptr @calloc_arena(i64 noundef %4) #12
  %6 = getelementptr inbounds i8, ptr %0, i64 8
  store ptr %5, ptr %6, align 8
  %.not = icmp eq i32 %1, 0
  br i1 %.not, label %._crit_edge, label %.lr.ph

.lr.ph:                                           ; preds = %2
  store i8 0, ptr %5, align 1
  br label %._crit_edge

._crit_edge:                                      ; preds = %.lr.ph, %2
  %7 = add i32 %1, -1
  %8 = lshr i32 %7, 1
  %9 = or i32 %8, %7
  %10 = lshr i32 %9, 2
  %11 = or i32 %10, %9
  %12 = lshr i32 %11, 4
  %13 = or i32 %12, %11
  %14 = lshr i32 %13, 8
  %15 = or i32 %14, %13
  %16 = lshr i32 %15, 16
  %17 = or i32 %16, %15
  store i32 %17, ptr %0, align 8
  ret void
}